; Function Attrs: mustprogress uwtable
define void @_ZN32pxrInternal_v0_24__pxrReserved__17Sdf_ChangeManager17RemoveSpecIfInertERKNS_7SdfSpecE(ptr noundef nonnull align 8 dereferenceable(104) %0, ptr noundef nonnull align 8 dereferenceable(8) %1) local_unnamed_addr #0 align 2 personality ptr @__gxx_personality_v0 {
  %3 = alloca i8, align 1
  %4 = alloca %"class.pxrInternal_v0_24__pxrReserved__::SdfChangeBlock", align 8
  call void @_ZN32pxrInternal_v0_24__pxrReserved__14SdfChangeBlockC1Ev(ptr noundef nonnull align 8 dereferenceable(8) %4)
  call void @llvm.lifetime.start.p0(i64 1, ptr nonnull %3)
  %5 = invoke noundef nonnull align 8 dereferenceable(56) ptr @_ZN3tbb6detail2d18ets_baseILNS1_18ets_key_usage_typeE1EE12table_lookupERb(ptr noundef nonnull align 8 dereferenceable(104) %0, ptr noundef nonnull align 1 dereferenceable(1) %3)
          to label %6 unwind label %24

6:                                                ; preds = %2
  call void @llvm.lifetime.end.p0(i64 1, ptr nonnull %3)
  %7 = getelementptr inbounds nuw i8, ptr %5, i64 40
  %8 = load ptr, ptr %7, align 8
  %9 = getelementptr inbounds nuw i8, ptr %5, i64 48
  %10 = load ptr, ptr %9, align 8
  %.not.i = icmp eq ptr %8, %10
  br i1 %.not.i, label %17, label %11

11:                                               ; preds = %6
  %12 = load ptr, ptr %1, align 8
  store ptr %12, ptr %8, align 8
  %.not.i.i.i.i.i.i = icmp eq ptr %12, null
  br i1 %.not.i.i.i.i.i.i, label %_ZNSt16allocator_traitsISaIN32pxrInternal_v0_24__pxrReserved__7SdfSpecEEE9constructIS1_JRKS1_EEEvRS2_PT_DpOT0_.exit.i, label %13

13:                                               ; preds = %11
  %14 = atomicrmw add ptr %12, i32 1 seq_cst, align 4
  br label %_ZNSt16allocator_traitsISaIN32pxrInternal_v0_24__pxrReserved__7SdfSpecEEE9constructIS1_JRKS1_EEEvRS2_PT_DpOT0_.exit.i

_ZNSt16allocator_traitsISaIN32pxrInternal_v0_24__pxrReserved__7SdfSpecEEE9constructIS1_JRKS1_EEEvRS2_PT_DpOT0_.exit.i: ; preds = %13, %11
  %15 = load ptr, ptr %7, align 8
  %16 = getelementptr inbounds nuw i8, ptr %15, i64 8
  store ptr %16, ptr %7, align 8
  br label %_ZNSt6vectorIN32pxrInternal_v0_24__pxrReserved__7SdfSpecESaIS1_EE9push_backERKS1_.exit

17:                                               ; preds = %6
  %18 = getelementptr inbounds nuw i8, ptr %5, i64 32
  invoke void @_ZNSt6vectorIN32pxrInternal_v0_24__pxrReserved__7SdfSpecESaIS1_EE17_M_realloc_insertIJRKS1_EEEvN9__gnu_cxx17__normal_iteratorIPS1_S3_EEDpOT_(ptr noundef nonnull align 8 dereferenceable(24) %18, ptr %8, ptr noundef nonnull align 8 dereferenceable(8) %1)
          to label %_ZNSt6vectorIN32pxrInternal_v0_24__pxrReserved__7SdfSpecESaIS1_EE9push_backERKS1_.exit unwind label %24

_ZNSt6vectorIN32pxrInternal_v0_24__pxrReserved__7SdfSpecESaIS1_EE9push_backERKS1_.exit: ; preds = %_ZNSt16allocator_traitsISaIN32pxrInternal_v0_24__pxrReserved__7SdfSpecEEE9constructIS1_JRKS1_EEEvRS2_PT_DpOT0_.exit.i, %17
  %19 = load ptr, ptr %4, align 8
  %.not.i3 = icmp eq ptr %19, null
  br i1 %.not.i3, label %_ZN32pxrInternal_v0_24__pxrReserved__14SdfChangeBlockD2Ev.exit, label %20

20:                                               ; preds = %_ZNSt6vectorIN32pxrInternal_v0_24__pxrReserved__7SdfSpecESaIS1_EE9push_backERKS1_.exit
  invoke void @_ZNK32pxrInternal_v0_24__pxrReserved__14SdfChangeBlock17_CloseChangeBlockEPKv(ptr noundef nonnull align 8 dereferenceable(8) %4, ptr noundef nonnull %19)
          to label %_ZN32pxrInternal_v0_24__pxrReserved__14SdfChangeBlockD2Ev.exit unwind label %21

21:                                               ; preds = %20
  %22 = landingpad { ptr, i32 }
          catch ptr null
  %23 = extractvalue { ptr, i32 } %22, 0
  call void @__clang_call_terminate(ptr %23) #27
  unreachable

_ZN32pxrInternal_v0_24__pxrReserved__14SdfChangeBlockD2Ev.exit: ; preds = %_ZNSt6vectorIN32pxrInternal_v0_24__pxrReserved__7SdfSpecESaIS1_EE9push_backERKS1_.exit, %20
  ret void

24:                                               ; preds = %17, %2
  %25 = landingpad { ptr, i32 }
          cleanup
  call void @_ZN32pxrInternal_v0_24__pxrReserved__14SdfChangeBlockD2Ev(ptr noundef nonnull align 8 dereferenceable(8) %4) #18
  resume { ptr, i32 } %25
}